ccopy_reg
_reconstructor
p0
(cgoogle.oauth2.credentials
Credentials
p1
c__builtin__
object
p2
Ntp3
Rp4
(dp5
S'_quota_project_id'
p6
NsS'_token_uri'
p7
Vhttps://oauth2.googleapis.com/token
p8
sS'_client_secret'
p9
V2KOe7Grrf6_yZHPK8ffSlO-U
p10
sS'_id_token'
p11
NsS'token'
p12
Vya29.a0AfH6SMCpmJ6al3Y1HCBwL7sw0kXS_1FuhqglW8hDsPETXC4wcErZb8QLfqh2VSfqrE8AMNvqEdlZZWpAxEJ1YIrFBZq9MsccWpv1hcVseRpmfgMTps7IyAu4MaFUFO-8qhvibTkqmOnLedkDPuFiUSkN_OvaYgjuTUE
p13
sS'_refresh_token'
p14
V1//0g0MQDyxvSQCUCgYIARAAGBASNwF-L9IrkFctTx9akMnb20DYSdy_PXWYjiWu54reSVboOiemMmH-SS3mZvA8bJAZa1U443v1JD8
p15
sS'_scopes'
p16
(lp17
Vhttps://www.googleapis.com/auth/calendar
p18
asS'_client_id'
p19
V1048946239861-lm8jg54t8ll0quh2nukrjs1ar66uh9ae.apps.googleusercontent.com
p20
sS'expiry'
p21
cdatetime
datetime
p22
(S'\x07\xe4\x08\x06\x15 \x1d\t\xfan'
p23
tp24
Rp25
sb.